; Function Attrs: inlinehint mustprogress nofree norecurse nosync nounwind optsize willreturn memory(readwrite, inaccessiblemem: none) uwtable
define internal noundef ptr @_ZZN8nanobind6detail11func_createILb0ELb1EZNS0_18make_iterator_implINS0_21iterator_value_accessIZL36nanobind_init_test_make_iterator_extRNS_7module_EEN11IdentityMap8iteratorEEELNS_9rv_policyE1ES7_S7_iJEEENS_5typedINS_8iteratorEJT3_EEENS_6handleEPKcT1_T2_DpOT4_EUlSE_E_SE_JSE_EJLm0EEJNS_5scopeENS_4nameENS_9is_methodEEEEP7_objectOSH_PFSI_DpT3_ESt16integer_sequenceImJXspT4_EEEDpRKT5_ENUlPvPSR_PhS9_PNS0_12cleanup_listEE_8__invokeES13_S14_S15_S9_S17_(ptr readnone captures(none) %0, ptr noundef readonly captures(none) %1, ptr readonly captures(none) %2, i32 %3, ptr readnone captures(none) %4) #16 align 2 personality ptr @__gxx_personality_v0 {
  %6 = load ptr, ptr %1, align 8, !tbaa !44
  %.not.i.i.i = icmp eq ptr %6, null
  br i1 %.not.i.i.i, label %_ZZN8nanobind6detail11func_createILb0ELb1EZNS0_18make_iterator_implINS0_21iterator_value_accessIZL36nanobind_init_test_make_iterator_extRNS_7module_EEN11IdentityMap8iteratorEEELNS_9rv_policyE1ES7_S7_iJEEENS_5typedINS_8iteratorEJT3_EEENS_6handleEPKcT1_T2_DpOT4_EUlSE_E_SE_JSE_EJLm0EEJNS_5scopeENS_4nameENS_9is_methodEEEEP7_objectOSH_PFSI_DpT3_ESt16integer_sequenceImJXspT4_EEEDpRKT5_ENKUlPvPSR_PhS9_PNS0_12cleanup_listEE_clES13_S14_S15_S9_S17_.exit, label %7

7:                                                ; preds = %5
  %8 = load i64, ptr %6, align 8, !tbaa !47
  %9 = add nsw i64 %8, 1
  store i64 %9, ptr %6, align 8, !tbaa !47
  br label %_ZZN8nanobind6detail11func_createILb0ELb1EZNS0_18make_iterator_implINS0_21iterator_value_accessIZL36nanobind_init_test_make_iterator_extRNS_7module_EEN11IdentityMap8iteratorEEELNS_9rv_policyE1ES7_S7_iJEEENS_5typedINS_8iteratorEJT3_EEENS_6handleEPKcT1_T2_DpOT4_EUlSE_E_SE_JSE_EJLm0EEJNS_5scopeENS_4nameENS_9is_methodEEEEP7_objectOSH_PFSI_DpT3_ESt16integer_sequenceImJXspT4_EEEDpRKT5_ENKUlPvPSR_PhS9_PNS0_12cleanup_listEE_clES13_S14_S15_S9_S17_.exit

_ZZN8nanobind6detail11func_createILb0ELb1EZNS0_18make_iterator_implINS0_21iterator_value_accessIZL36nanobind_init_test_make_iterator_extRNS_7module_EEN11IdentityMap8iteratorEEELNS_9rv_policyE1ES7_S7_iJEEENS_5typedINS_8iteratorEJT3_EEENS_6handleEPKcT1_T2_DpOT4_EUlSE_E_SE_JSE_EJLm0EEJNS_5scopeENS_4nameENS_9is_methodEEEEP7_objectOSH_PFSI_DpT3_ESt16integer_sequenceImJXspT4_EEEDpRKT5_ENKUlPvPSR_PhS9_PNS0_12cleanup_listEE_clES13_S14_S15_S9_S17_.exit: ; preds = %7, %5
  ret ptr %6
}